; Function Attrs: nounwind uwtable
define void @Gia_PolynBuild2(ptr noundef readnone captures(none) %0, i32 noundef %1, i32 noundef %2, i32 noundef %3) local_unnamed_addr #0 {
  %5 = tail call fastcc ptr @Hsh_VecManStart()
  %6 = tail call fastcc ptr @Hsh_VecManStart()
  %7 = load ptr, ptr %5, align 8, !tbaa !60
  %8 = getelementptr inbounds nuw i8, ptr %7, i64 8
  %9 = load ptr, ptr %8, align 8, !tbaa !33
  %.not.i.i = icmp eq ptr %9, null
  br i1 %.not.i.i, label %Vec_IntFree.exit.i, label %10

10:                                               ; preds = %4
  tail call void @free(ptr noundef nonnull %9) #25
  br label %Vec_IntFree.exit.i

Vec_IntFree.exit.i:                               ; preds = %10, %4
  tail call void @free(ptr noundef nonnull %7) #25
  %11 = getelementptr inbounds nuw i8, ptr %5, i64 8
  %12 = load ptr, ptr %11, align 8, !tbaa !62
  %13 = getelementptr inbounds nuw i8, ptr %12, i64 8
  %14 = load ptr, ptr %13, align 8, !tbaa !33
  %.not.i5.i = icmp eq ptr %14, null
  br i1 %.not.i5.i, label %Vec_IntFree.exit6.i, label %15

15:                                               ; preds = %Vec_IntFree.exit.i
  tail call void @free(ptr noundef nonnull %14) #25
  br label %Vec_IntFree.exit6.i

Vec_IntFree.exit6.i:                              ; preds = %15, %Vec_IntFree.exit.i
  tail call void @free(ptr noundef nonnull %12) #25
  %16 = getelementptr inbounds nuw i8, ptr %5, i64 16
  %17 = load ptr, ptr %16, align 8, !tbaa !63
  %18 = getelementptr inbounds nuw i8, ptr %17, i64 8
  %19 = load ptr, ptr %18, align 8, !tbaa !33
  %.not.i7.i = icmp eq ptr %19, null
  br i1 %.not.i7.i, label %Hsh_VecManStop.exit, label %20

20:                                               ; preds = %Vec_IntFree.exit6.i
  tail call void @free(ptr noundef nonnull %19) #25
  br label %Hsh_VecManStop.exit

Hsh_VecManStop.exit:                              ; preds = %Vec_IntFree.exit6.i, %20
  tail call void @free(ptr noundef nonnull %17) #25
  tail call void @free(ptr noundef nonnull %5) #25
  %21 = load ptr, ptr %6, align 8, !tbaa !60
  %22 = getelementptr inbounds nuw i8, ptr %21, i64 8
  %23 = load ptr, ptr %22, align 8, !tbaa !33
  %.not.i.i2 = icmp eq ptr %23, null
  br i1 %.not.i.i2, label %Vec_IntFree.exit.i3, label %24

24:                                               ; preds = %Hsh_VecManStop.exit
  tail call void @free(ptr noundef nonnull %23) #25
  br label %Vec_IntFree.exit.i3

Vec_IntFree.exit.i3:                              ; preds = %24, %Hsh_VecManStop.exit
  tail call void @free(ptr noundef nonnull %21) #25
  %25 = getelementptr inbounds nuw i8, ptr %6, i64 8
  %26 = load ptr, ptr %25, align 8, !tbaa !62
  %27 = getelementptr inbounds nuw i8, ptr %26, i64 8
  %28 = load ptr, ptr %27, align 8, !tbaa !33
  %.not.i5.i4 = icmp eq ptr %28, null
  br i1 %.not.i5.i4, label %Vec_IntFree.exit6.i5, label %29

29:                                               ; preds = %Vec_IntFree.exit.i3
  tail call void @free(ptr noundef nonnull %28) #25
  br label %Vec_IntFree.exit6.i5

Vec_IntFree.exit6.i5:                             ; preds = %29, %Vec_IntFree.exit.i3
  tail call void @free(ptr noundef nonnull %26) #25
  %30 = getelementptr inbounds nuw i8, ptr %6, i64 16
  %31 = load ptr, ptr %30, align 8, !tbaa !63
  %32 = getelementptr inbounds nuw i8, ptr %31, i64 8
  %33 = load ptr, ptr %32, align 8, !tbaa !33
  %.not.i7.i6 = icmp eq ptr %33, null
  br i1 %.not.i7.i6, label %Hsh_VecManStop.exit7, label %34

34:                                               ; preds = %Vec_IntFree.exit6.i5
  tail call void @free(ptr noundef nonnull %33) #25
  br label %Hsh_VecManStop.exit7

Hsh_VecManStop.exit7:                             ; preds = %Vec_IntFree.exit6.i5, %34
  tail call void @free(ptr noundef nonnull %31) #25
  tail call void @free(ptr noundef nonnull %6) #25
  ret void
}